; Function Attrs: mustprogress nofree norecurse nosync nounwind willreturn memory(read, inaccessiblemem: none) uwtable
define dso_local noundef zeroext i1 @_ZNK5cmELF5ValidEv(ptr nocapture noundef nonnull readonly align 8 dereferenceable(40) %0) local_unnamed_addr #4 align 2 {
  %2 = load ptr, ptr %0, align 8
  %.not = icmp eq ptr %2, null
  br i1 %.not, label %7, label %3

3:                                                ; preds = %1
  %4 = getelementptr inbounds i8, ptr %2, i64 28
  %5 = load i32, ptr %4, align 4
  %6 = icmp ne i32 %5, 0
  br label %7

7:                                                ; preds = %3, %1
  %8 = phi i1 [ false, %1 ], [ %6, %3 ]
  ret i1 %8
}